target datalayout = "e-m:e-p270:32:32-p271:32:32-p272:64:64-i64:64-i128:128-f80:128-n8:16:32:64-S128"
target triple = "x86_64-pc-linux-gnu"

%"class.cvc5::internal::NodeTemplate.67" = type { ptr }

; Function Attrs: mustprogress nounwind uwtable
define linkonce_odr hidden void @_ZN4cvc58internal12NodeTemplateILb0EED2Ev(ptr noundef nonnull align 8 dereferenceable(8) %0) unnamed_addr #4 comdat align 2 {
  %2 = alloca ptr, align 8
  store ptr %0, ptr %2, align 8, !tbaa !20
  ret void
}

; Function Attrs: mustprogress nounwind uwtable
define linkonce_odr hidden void @_ZN4cvc58internal12NodeTemplateILb0EEC2ERKS2_(ptr noundef nonnull align 8 dereferenceable(8) %0, ptr noundef nonnull align 8 dereferenceable(8) %1) unnamed_addr #4 comdat align 2 {
  %3 = alloca ptr, align 8
  %4 = alloca ptr, align 8
  store ptr %0, ptr %3, align 8, !tbaa !20
  store ptr %1, ptr %4, align 8, !tbaa !20
  %5 = load ptr, ptr %3, align 8
  %6 = load ptr, ptr %4, align 8, !tbaa !20
  %7 = getelementptr inbounds nuw %"class.cvc5::internal::NodeTemplate.67", ptr %6, i32 0, i32 0
  %8 = load ptr, ptr %7, align 8, !tbaa !23
  %9 = getelementptr inbounds nuw %"class.cvc5::internal::NodeTemplate.67", ptr %5, i32 0, i32 0
  store ptr %8, ptr %9, align 8, !tbaa !23
  ret void
}

; Function Attrs: mustprogress uwtable
define hidden noundef zeroext i1 @_ZN4cvc58internal6theory14getInferenceIdENS0_12NodeTemplateILb0EEERNS1_11InferenceIdE(ptr noundef %0, ptr noundef nonnull align 4 dereferenceable(4) %1) #5 personality ptr @__gxx_personality_v0 {
  %3 = alloca i1, align 1
  %4 = alloca ptr, align 8
  %5 = alloca ptr, align 8
  %6 = alloca i32, align 4
  %7 = alloca %"class.cvc5::internal::NodeTemplate.67", align 8
  %8 = alloca ptr, align 8
  %9 = alloca i32, align 4
  %10 = alloca i32, align 4
  store ptr %0, ptr %4, align 8, !tbaa !20
  store ptr %1, ptr %5, align 8, !tbaa !22
  call void @llvm.lifetime.start.p0(i64 4, ptr %6) #3
  call void @_ZN4cvc58internal12NodeTemplateILb0EEC2ERKS2_(ptr noundef nonnull align 8 dereferenceable(8) %7, ptr noundef nonnull align 8 dereferenceable(8) %0)
  %11 = invoke noundef zeroext i1 @_ZN4cvc58internal16ProofRuleChecker9getUInt32ENS0_12NodeTemplateILb0EEERj(ptr noundef %7, ptr noundef nonnull align 4 dereferenceable(4) %6)
          to label %12 unwind label %15

12:                                               ; preds = %2
  %13 = xor i1 %11, true
  call void @_ZN4cvc58internal12NodeTemplateILb0EED2Ev(ptr noundef nonnull align 8 dereferenceable(8) %7) #3
  br i1 %13, label %14, label %19

14:                                               ; preds = %12
  store i1 false, ptr %3, align 1
  store i32 1, ptr %10, align 4
  br label %22

15:                                               ; preds = %2
  %16 = landingpad { ptr, i32 }
          cleanup
  %17 = extractvalue { ptr, i32 } %16, 0
  store ptr %17, ptr %8, align 8
  %18 = extractvalue { ptr, i32 } %16, 1
  store i32 %18, ptr %9, align 4
  call void @_ZN4cvc58internal12NodeTemplateILb0EED2Ev(ptr noundef nonnull align 8 dereferenceable(8) %7) #3
  call void @llvm.lifetime.end.p0(i64 4, ptr %6) #3
  br label %24

19:                                               ; preds = %12
  %20 = load i32, ptr %6, align 4, !tbaa !18
  %21 = load ptr, ptr %5, align 8, !tbaa !22
  store i32 %20, ptr %21, align 4, !tbaa !3
  store i1 true, ptr %3, align 1
  store i32 1, ptr %10, align 4
  br label %22

22:                                               ; preds = %19, %14
  call void @llvm.lifetime.end.p0(i64 4, ptr %6) #3
  %23 = load i1, ptr %3, align 1
  ret i1 %23

24:                                               ; preds = %15
  %25 = load ptr, ptr %8, align 8
  %26 = load i32, ptr %9, align 4
  %27 = insertvalue { ptr, i32 } poison, ptr %25, 0
  %28 = insertvalue { ptr, i32 } %27, i32 %26, 1
  resume { ptr, i32 } %28
}